target datalayout = "e-m:e-p270:32:32-p271:32:32-p272:64:64-i64:64-i128:128-f80:128-n8:16:32:64-S128"
target triple = "x86_64-pc-linux-gnu"

%"class.gmx::AbstractAnalysisData" = type { ptr, %"class.std::unique_ptr" }
%"class.std::unique_ptr" = type { %"struct.std::__uniq_ptr_data" }
%"struct.std::__uniq_ptr_data" = type { %"class.std::__uniq_ptr_impl" }
%"class.std::__uniq_ptr_impl" = type { %"class.std::tuple" }
%"class.std::tuple" = type { %"struct.std::_Tuple_impl" }
%"struct.std::_Tuple_impl" = type { %"struct.std::_Head_base.24" }
%"struct.std::_Head_base.24" = type { ptr }
%"class.gmx::AnalysisDataFrameHeader" = type { i32, float, float }
%"class.gmx::AnalysisHistogramSettings" = type <{ float, float, float, float, i32, i8, [3 x i8] }>
%"class.gmx::IAnalysisDataModule" = type { ptr }
%"class.gmx::AnalysisDataSimpleHistogramModule" = type { %"class.gmx::AbstractAnalysisData", %"class.gmx::AnalysisDataModuleParallel", %"class.std::unique_ptr.58" }
%"class.gmx::AnalysisDataModuleParallel" = type { %"class.gmx::IAnalysisDataModule" }
%"class.std::unique_ptr.58" = type { %"struct.std::__uniq_ptr_data.59" }
%"struct.std::__uniq_ptr_data.59" = type { %"class.std::__uniq_ptr_impl.60" }
%"class.std::__uniq_ptr_impl.60" = type { %"class.std::tuple.61" }
%"class.std::tuple.61" = type { %"struct.std::_Tuple_impl.62" }
%"struct.std::_Tuple_impl.62" = type { %"struct.std::_Head_base.65" }
%"struct.std::_Head_base.65" = type { ptr }
%"class.gmx::internal::BasicHistogramImpl" = type { ptr, %"class.gmx::AnalysisDataStorage", %"class.gmx::AnalysisHistogramSettings", %"class.std::shared_ptr" }
%"class.gmx::AnalysisDataStorage" = type { %"class.std::unique_ptr.50" }
%"class.std::unique_ptr.50" = type { %"struct.std::__uniq_ptr_data.51" }
%"struct.std::__uniq_ptr_data.51" = type { %"class.std::__uniq_ptr_impl.52" }
%"class.std::__uniq_ptr_impl.52" = type { %"class.std::tuple.53" }
%"class.std::tuple.53" = type { %"struct.std::_Tuple_impl.54" }
%"struct.std::_Tuple_impl.54" = type { %"struct.std::_Head_base.57" }
%"struct.std::_Head_base.57" = type { ptr }
%"class.std::shared_ptr" = type { %"class.std::__shared_ptr" }
%"class.std::__shared_ptr" = type { ptr, %"class.std::__shared_count" }
%"class.std::__shared_count" = type { ptr }
%"class.gmx::AnalysisDataSimpleHistogramModule::Impl" = type { %"class.gmx::internal::BasicHistogramImpl", %"class.gmx::AnalysisDataFrameLocalData" }
%"class.gmx::AnalysisDataFrameLocalData" = type { %"class.std::vector.66", %"class.std::vector.71" }
%"class.std::vector.66" = type { %"struct.std::_Vector_base.67" }
%"struct.std::_Vector_base.67" = type { %"struct.std::_Vector_base<int, std::allocator<int>>::_Vector_impl" }
%"struct.std::_Vector_base<int, std::allocator<int>>::_Vector_impl" = type { %"struct.std::_Vector_base<int, std::allocator<int>>::_Vector_impl_data" }
%"struct.std::_Vector_base<int, std::allocator<int>>::_Vector_impl_data" = type { ptr, ptr, ptr }
%"class.std::vector.71" = type { %"struct.std::_Vector_base.72" }
%"struct.std::_Vector_base.72" = type { %"struct.std::_Vector_base<std::vector<long>, std::allocator<std::vector<long>>>::_Vector_impl" }
%"struct.std::_Vector_base<std::vector<long>, std::allocator<std::vector<long>>>::_Vector_impl" = type { %"struct.std::_Vector_base<std::vector<long>, std::allocator<std::vector<long>>>::_Vector_impl_data" }
%"struct.std::_Vector_base<std::vector<long>, std::allocator<std::vector<long>>>::_Vector_impl_data" = type { ptr, ptr, ptr }
%"class.gmx::AnalysisDataFrameLocalDataHandle" = type { ptr, ptr }
%"class.std::vector.76" = type { %"struct.std::_Vector_base.77" }
%"struct.std::_Vector_base.77" = type { %"struct.std::_Vector_base<long, std::allocator<long>>::_Vector_impl" }
%"struct.std::_Vector_base<long, std::allocator<long>>::_Vector_impl" = type { %"struct.std::_Vector_base<long, std::allocator<long>>::_Vector_impl_data" }
%"struct.std::_Vector_base<long, std::allocator<long>>::_Vector_impl_data" = type { ptr, ptr, ptr }
%"class.__gnu_cxx::__normal_iterator.100" = type { ptr }

; Function Attrs: mustprogress nounwind uwtable
define linkonce_odr noundef nonnull align 8 dereferenceable(8) ptr @_ZNSt10_Head_baseILm0EPN3gmx33AnalysisDataSimpleHistogramModule4ImplELb0EE7_M_headERKS4_(ptr noundef nonnull align 8 dereferenceable(8) %0) #0 comdat align 2 {
  %2 = alloca ptr, align 8
  store ptr %0, ptr %2, align 8
  %3 = load ptr, ptr %2, align 8
  %4 = getelementptr inbounds %"struct.std::_Head_base.65", ptr %3, i32 0, i32 0
  ret ptr %4
}

; Function Attrs: mustprogress nounwind uwtable
define linkonce_odr noundef nonnull align 8 dereferenceable(8) ptr @_ZNSt11_Tuple_implILm0EJPN3gmx33AnalysisDataSimpleHistogramModule4ImplESt14default_deleteIS2_EEE7_M_headERKS6_(ptr noundef nonnull align 8 dereferenceable(8) %0) #0 comdat align 2 {
  %2 = alloca ptr, align 8
  store ptr %0, ptr %2, align 8
  %3 = load ptr, ptr %2, align 8
  %4 = call noundef nonnull align 8 dereferenceable(8) ptr @_ZNSt10_Head_baseILm0EPN3gmx33AnalysisDataSimpleHistogramModule4ImplELb0EE7_M_headERKS4_(ptr noundef nonnull align 8 dereferenceable(8) %3) #14
  ret ptr %4
}

; Function Attrs: mustprogress nounwind uwtable
define linkonce_odr void @_ZSt9__fill_a1IPllEN9__gnu_cxx11__enable_ifIXsr11__is_scalarIT0_EE7__valueEvE6__typeET_S6_RKS3_(ptr noundef %0, ptr noundef %1, ptr noundef nonnull align 8 dereferenceable(8) %2) #0 comdat {
  %4 = alloca ptr, align 8
  %5 = alloca ptr, align 8
  %6 = alloca ptr, align 8
  %7 = alloca i64, align 8
  store ptr %0, ptr %4, align 8
  store ptr %1, ptr %5, align 8
  store ptr %2, ptr %6, align 8
  %8 = load ptr, ptr %6, align 8
  %9 = load i64, ptr %8, align 8
  store i64 %9, ptr %7, align 8
  br label %10

10:                                               ; preds = %17, %3
  %11 = load ptr, ptr %4, align 8
  %12 = load ptr, ptr %5, align 8
  %13 = icmp ne ptr %11, %12
  br i1 %13, label %14, label %20

14:                                               ; preds = %10
  %15 = load i64, ptr %7, align 8
  %16 = load ptr, ptr %4, align 8
  store i64 %15, ptr %16, align 8
  br label %17

17:                                               ; preds = %14
  %18 = load ptr, ptr %4, align 8
  %19 = getelementptr inbounds i64, ptr %18, i32 1
  store ptr %19, ptr %4, align 8
  br label %10, !llvm.loop !40

20:                                               ; preds = %10
  ret void
}

; Function Attrs: mustprogress nounwind uwtable
define linkonce_odr noundef nonnull align 8 dereferenceable(8) ptr @_ZNK9__gnu_cxx17__normal_iteratorIPlSt6vectorIlSaIlEEE4baseEv(ptr noundef nonnull align 8 dereferenceable(8) %0) #0 comdat align 2 {
  %2 = alloca ptr, align 8
  store ptr %0, ptr %2, align 8
  %3 = load ptr, ptr %2, align 8
  %4 = getelementptr inbounds %"class.__gnu_cxx::__normal_iterator.100", ptr %3, i32 0, i32 0
  ret ptr %4
}

; Function Attrs: mustprogress nounwind uwtable
define linkonce_odr noundef nonnull align 8 dereferenceable(8) ptr @_ZSt12__get_helperILm0EPN3gmx33AnalysisDataSimpleHistogramModule4ImplEJSt14default_deleteIS2_EEERKT0_RKSt11_Tuple_implIXT_EJS6_DpT1_EE(ptr noundef nonnull align 8 dereferenceable(8) %0) #0 comdat {
  %2 = alloca ptr, align 8
  store ptr %0, ptr %2, align 8
  %3 = load ptr, ptr %2, align 8
  %4 = call noundef nonnull align 8 dereferenceable(8) ptr @_ZNSt11_Tuple_implILm0EJPN3gmx33AnalysisDataSimpleHistogramModule4ImplESt14default_deleteIS2_EEE7_M_headERKS6_(ptr noundef nonnull align 8 dereferenceable(8) %3) #14
  ret ptr %4
}

; Function Attrs: mustprogress nounwind uwtable
define linkonce_odr void @_ZSt9__fill_a1IPlSt6vectorIlSaIlEElEvN9__gnu_cxx17__normal_iteratorIT_T0_EES8_RKT1_(ptr %0, ptr %1, ptr noundef nonnull align 8 dereferenceable(8) %2) #0 comdat {
  %4 = alloca %"class.__gnu_cxx::__normal_iterator.100", align 8
  %5 = alloca %"class.__gnu_cxx::__normal_iterator.100", align 8
  %6 = alloca ptr, align 8
  %7 = getelementptr inbounds %"class.__gnu_cxx::__normal_iterator.100", ptr %4, i32 0, i32 0
  store ptr %0, ptr %7, align 8
  %8 = getelementptr inbounds %"class.__gnu_cxx::__normal_iterator.100", ptr %5, i32 0, i32 0
  store ptr %1, ptr %8, align 8
  store ptr %2, ptr %6, align 8
  %9 = call noundef nonnull align 8 dereferenceable(8) ptr @_ZNK9__gnu_cxx17__normal_iteratorIPlSt6vectorIlSaIlEEE4baseEv(ptr noundef nonnull align 8 dereferenceable(8) %4) #14
  %10 = load ptr, ptr %9, align 8
  %11 = call noundef nonnull align 8 dereferenceable(8) ptr @_ZNK9__gnu_cxx17__normal_iteratorIPlSt6vectorIlSaIlEEE4baseEv(ptr noundef nonnull align 8 dereferenceable(8) %5) #14
  %12 = load ptr, ptr %11, align 8
  %13 = load ptr, ptr %6, align 8
  call void @_ZSt9__fill_a1IPllEN9__gnu_cxx11__enable_ifIXsr11__is_scalarIT0_EE7__valueEvE6__typeET_S6_RKS3_(ptr noundef %10, ptr noundef %12, ptr noundef nonnull align 8 dereferenceable(8) %13)
  ret void
}

; Function Attrs: mustprogress nounwind uwtable
define linkonce_odr noundef nonnull align 8 dereferenceable(8) ptr @_ZSt3getILm0EJPN3gmx33AnalysisDataSimpleHistogramModule4ImplESt14default_deleteIS2_EEERKNSt13tuple_elementIXT_ESt5tupleIJDpT0_EEE4typeERKSA_(ptr noundef nonnull align 8 dereferenceable(8) %0) #0 comdat {
  %2 = alloca ptr, align 8
  store ptr %0, ptr %2, align 8
  %3 = load ptr, ptr %2, align 8
  %4 = call noundef nonnull align 8 dereferenceable(8) ptr @_ZSt12__get_helperILm0EPN3gmx33AnalysisDataSimpleHistogramModule4ImplEJSt14default_deleteIS2_EEERKT0_RKSt11_Tuple_implIXT_EJS6_DpT1_EE(ptr noundef nonnull align 8 dereferenceable(8) %3) #14
  ret ptr %4
}

; Function Attrs: mustprogress uwtable
define linkonce_odr void @_ZSt8__fill_aIN9__gnu_cxx17__normal_iteratorIPlSt6vectorIlSaIlEEEElEvT_S7_RKT0_(ptr %0, ptr %1, ptr noundef nonnull align 8 dereferenceable(8) %2) #2 comdat {
  %4 = alloca %"class.__gnu_cxx::__normal_iterator.100", align 8
  %5 = alloca %"class.__gnu_cxx::__normal_iterator.100", align 8
  %6 = alloca ptr, align 8
  %7 = alloca %"class.__gnu_cxx::__normal_iterator.100", align 8
  %8 = alloca %"class.__gnu_cxx::__normal_iterator.100", align 8
  %9 = getelementptr inbounds %"class.__gnu_cxx::__normal_iterator.100", ptr %4, i32 0, i32 0
  store ptr %0, ptr %9, align 8
  %10 = getelementptr inbounds %"class.__gnu_cxx::__normal_iterator.100", ptr %5, i32 0, i32 0
  store ptr %1, ptr %10, align 8
  store ptr %2, ptr %6, align 8
  call void @llvm.memcpy.p0.p0.i64(ptr align 8 %7, ptr align 8 %4, i64 8, i1 false)
  call void @llvm.memcpy.p0.p0.i64(ptr align 8 %8, ptr align 8 %5, i64 8, i1 false)
  %11 = load ptr, ptr %6, align 8
  %12 = getelementptr inbounds %"class.__gnu_cxx::__normal_iterator.100", ptr %7, i32 0, i32 0
  %13 = load ptr, ptr %12, align 8
  %14 = getelementptr inbounds %"class.__gnu_cxx::__normal_iterator.100", ptr %8, i32 0, i32 0
  %15 = load ptr, ptr %14, align 8
  call void @_ZSt9__fill_a1IPlSt6vectorIlSaIlEElEvN9__gnu_cxx17__normal_iteratorIT_T0_EES8_RKT1_(ptr %13, ptr %15, ptr noundef nonnull align 8 dereferenceable(8) %11)
  ret void
}

; Function Attrs: mustprogress nounwind uwtable
define linkonce_odr void @_ZN9__gnu_cxx17__normal_iteratorIPlSt6vectorIlSaIlEEEC2ERKS1_(ptr noundef nonnull align 8 dereferenceable(8) %0, ptr noundef nonnull align 8 dereferenceable(8) %1) unnamed_addr #0 comdat align 2 {
  %3 = alloca ptr, align 8
  %4 = alloca ptr, align 8
  store ptr %0, ptr %3, align 8
  store ptr %1, ptr %4, align 8
  %5 = load ptr, ptr %3, align 8
  %6 = getelementptr inbounds %"class.__gnu_cxx::__normal_iterator.100", ptr %5, i32 0, i32 0
  %7 = load ptr, ptr %4, align 8
  %8 = load ptr, ptr %7, align 8
  store ptr %8, ptr %6, align 8
  ret void
}

; Function Attrs: mustprogress nounwind uwtable
define linkonce_odr noundef ptr @_ZNKSt15__uniq_ptr_implIN3gmx33AnalysisDataSimpleHistogramModule4ImplESt14default_deleteIS2_EE6_M_ptrEv(ptr noundef nonnull align 8 dereferenceable(8) %0) #0 comdat align 2 {
  %2 = alloca ptr, align 8
  store ptr %0, ptr %2, align 8
  %3 = load ptr, ptr %2, align 8
  %4 = getelementptr inbounds %"class.std::__uniq_ptr_impl.60", ptr %3, i32 0, i32 0
  %5 = call noundef nonnull align 8 dereferenceable(8) ptr @_ZSt3getILm0EJPN3gmx33AnalysisDataSimpleHistogramModule4ImplESt14default_deleteIS2_EEERKNSt13tuple_elementIXT_ESt5tupleIJDpT0_EEE4typeERKSA_(ptr noundef nonnull align 8 dereferenceable(8) %4) #14
  %6 = load ptr, ptr %5, align 8
  ret ptr %6
}

; Function Attrs: mustprogress uwtable
define linkonce_odr void @_ZSt4fillIN9__gnu_cxx17__normal_iteratorIPlSt6vectorIlSaIlEEEElEvT_S7_RKT0_(ptr %0, ptr %1, ptr noundef nonnull align 8 dereferenceable(8) %2) #2 comdat {
  %4 = alloca %"class.__gnu_cxx::__normal_iterator.100", align 8
  %5 = alloca %"class.__gnu_cxx::__normal_iterator.100", align 8
  %6 = alloca ptr, align 8
  %7 = alloca %"class.__gnu_cxx::__normal_iterator.100", align 8
  %8 = alloca %"class.__gnu_cxx::__normal_iterator.100", align 8
  %9 = getelementptr inbounds %"class.__gnu_cxx::__normal_iterator.100", ptr %4, i32 0, i32 0
  store ptr %0, ptr %9, align 8
  %10 = getelementptr inbounds %"class.__gnu_cxx::__normal_iterator.100", ptr %5, i32 0, i32 0
  store ptr %1, ptr %10, align 8
  store ptr %2, ptr %6, align 8
  call void @llvm.memcpy.p0.p0.i64(ptr align 8 %7, ptr align 8 %4, i64 8, i1 false)
  call void @llvm.memcpy.p0.p0.i64(ptr align 8 %8, ptr align 8 %5, i64 8, i1 false)
  %11 = load ptr, ptr %6, align 8
  %12 = getelementptr inbounds %"class.__gnu_cxx::__normal_iterator.100", ptr %7, i32 0, i32 0
  %13 = load ptr, ptr %12, align 8
  %14 = getelementptr inbounds %"class.__gnu_cxx::__normal_iterator.100", ptr %8, i32 0, i32 0
  %15 = load ptr, ptr %14, align 8
  call void @_ZSt8__fill_aIN9__gnu_cxx17__normal_iteratorIPlSt6vectorIlSaIlEEEElEvT_S7_RKT0_(ptr %13, ptr %15, ptr noundef nonnull align 8 dereferenceable(8) %11)
  ret void
}

; Function Attrs: mustprogress nounwind uwtable
define linkonce_odr ptr @_ZNSt6vectorIlSaIlEE3endEv(ptr noundef nonnull align 8 dereferenceable(24) %0) #0 comdat align 2 {
  %2 = alloca %"class.__gnu_cxx::__normal_iterator.100", align 8
  %3 = alloca ptr, align 8
  store ptr %0, ptr %3, align 8
  %4 = load ptr, ptr %3, align 8
  %5 = getelementptr inbounds %"struct.std::_Vector_base.77", ptr %4, i32 0, i32 0
  %6 = getelementptr inbounds %"struct.std::_Vector_base<long, std::allocator<long>>::_Vector_impl_data", ptr %5, i32 0, i32 1
  call void @_ZN9__gnu_cxx17__normal_iteratorIPlSt6vectorIlSaIlEEEC2ERKS1_(ptr noundef nonnull align 8 dereferenceable(8) %2, ptr noundef nonnull align 8 dereferenceable(8) %6) #14
  %7 = getelementptr inbounds %"class.__gnu_cxx::__normal_iterator.100", ptr %2, i32 0, i32 0
  %8 = load ptr, ptr %7, align 8
  ret ptr %8
}

; Function Attrs: mustprogress nounwind uwtable
define linkonce_odr ptr @_ZNSt6vectorIlSaIlEE5beginEv(ptr noundef nonnull align 8 dereferenceable(24) %0) #0 comdat align 2 {
  %2 = alloca %"class.__gnu_cxx::__normal_iterator.100", align 8
  %3 = alloca ptr, align 8
  store ptr %0, ptr %3, align 8
  %4 = load ptr, ptr %3, align 8
  %5 = getelementptr inbounds %"struct.std::_Vector_base.77", ptr %4, i32 0, i32 0
  %6 = getelementptr inbounds %"struct.std::_Vector_base<long, std::allocator<long>>::_Vector_impl_data", ptr %5, i32 0, i32 0
  call void @_ZN9__gnu_cxx17__normal_iteratorIPlSt6vectorIlSaIlEEEC2ERKS1_(ptr noundef nonnull align 8 dereferenceable(8) %2, ptr noundef nonnull align 8 dereferenceable(8) %6) #14
  %7 = getelementptr inbounds %"class.__gnu_cxx::__normal_iterator.100", ptr %2, i32 0, i32 0
  %8 = load ptr, ptr %7, align 8
  ret ptr %8
}

; Function Attrs: mustprogress nounwind uwtable
define linkonce_odr void @_ZN3gmx32AnalysisDataFrameLocalDataHandleIlEC2EPKSt6vectorIiSaIiEEPS2_IlSaIlEE(ptr noundef nonnull align 8 dereferenceable(16) %0, ptr noundef %1, ptr noundef %2) unnamed_addr #0 comdat align 2 {
  %4 = alloca ptr, align 8
  %5 = alloca ptr, align 8
  %6 = alloca ptr, align 8
  store ptr %0, ptr %4, align 8
  store ptr %1, ptr %5, align 8
  store ptr %2, ptr %6, align 8
  %7 = load ptr, ptr %4, align 8
  %8 = getelementptr inbounds %"class.gmx::AnalysisDataFrameLocalDataHandle", ptr %7, i32 0, i32 0
  %9 = load ptr, ptr %5, align 8
  store ptr %9, ptr %8, align 8
  %10 = getelementptr inbounds %"class.gmx::AnalysisDataFrameLocalDataHandle", ptr %7, i32 0, i32 1
  %11 = load ptr, ptr %6, align 8
  store ptr %11, ptr %10, align 8
  ret void
}

; Function Attrs: mustprogress nounwind uwtable
define linkonce_odr noundef nonnull align 8 dereferenceable(24) ptr @_ZNSt6vectorIS_IlSaIlEESaIS1_EEixEm(ptr noundef nonnull align 8 dereferenceable(24) %0, i64 noundef %1) #0 comdat align 2 {
  %3 = alloca ptr, align 8
  %4 = alloca i64, align 8
  store ptr %0, ptr %3, align 8
  store i64 %1, ptr %4, align 8
  %5 = load ptr, ptr %3, align 8
  %6 = getelementptr inbounds %"struct.std::_Vector_base.72", ptr %5, i32 0, i32 0
  %7 = getelementptr inbounds %"struct.std::_Vector_base<std::vector<long>, std::allocator<std::vector<long>>>::_Vector_impl_data", ptr %6, i32 0, i32 0
  %8 = load ptr, ptr %7, align 8
  %9 = load i64, ptr %4, align 8
  %10 = getelementptr inbounds %"class.std::vector.76", ptr %8, i64 %9
  ret ptr %10
}

; Function Attrs: mustprogress nounwind uwtable
define linkonce_odr noundef i64 @_ZNKSt6vectorIS_IlSaIlEESaIS1_EE4sizeEv(ptr noundef nonnull align 8 dereferenceable(24) %0) #0 comdat align 2 {
  %2 = alloca ptr, align 8
  store ptr %0, ptr %2, align 8
  %3 = load ptr, ptr %2, align 8
  %4 = getelementptr inbounds %"struct.std::_Vector_base.72", ptr %3, i32 0, i32 0
  %5 = getelementptr inbounds %"struct.std::_Vector_base<std::vector<long>, std::allocator<std::vector<long>>>::_Vector_impl_data", ptr %4, i32 0, i32 1
  %6 = load ptr, ptr %5, align 8
  %7 = getelementptr inbounds %"struct.std::_Vector_base.72", ptr %3, i32 0, i32 0
  %8 = getelementptr inbounds %"struct.std::_Vector_base<std::vector<long>, std::allocator<std::vector<long>>>::_Vector_impl_data", ptr %7, i32 0, i32 0
  %9 = load ptr, ptr %8, align 8
  %10 = ptrtoint ptr %6 to i64
  %11 = ptrtoint ptr %9 to i64
  %12 = sub i64 %10, %11
  %13 = sdiv exact i64 %12, 24
  ret i64 %13
}

; Function Attrs: mustprogress nounwind uwtable
define linkonce_odr noundef ptr @_ZNKSt10unique_ptrIN3gmx33AnalysisDataSimpleHistogramModule4ImplESt14default_deleteIS2_EE3getEv(ptr noundef nonnull align 8 dereferenceable(8) %0) #0 comdat align 2 {
  %2 = alloca ptr, align 8
  store ptr %0, ptr %2, align 8
  %3 = load ptr, ptr %2, align 8
  %4 = getelementptr inbounds %"class.std::unique_ptr.58", ptr %3, i32 0, i32 0
  %5 = call noundef ptr @_ZNKSt15__uniq_ptr_implIN3gmx33AnalysisDataSimpleHistogramModule4ImplESt14default_deleteIS2_EE6_M_ptrEv(ptr noundef nonnull align 8 dereferenceable(8) %4) #14
  ret ptr %5
}

; Function Attrs: mustprogress uwtable
define linkonce_odr void @_ZN3gmx32AnalysisDataFrameLocalDataHandleIlE5clearEv(ptr noundef nonnull align 8 dereferenceable(16) %0) #2 comdat align 2 {
  %2 = alloca ptr, align 8
  %3 = alloca %"class.__gnu_cxx::__normal_iterator.100", align 8
  %4 = alloca %"class.__gnu_cxx::__normal_iterator.100", align 8
  %5 = alloca i64, align 8
  store ptr %0, ptr %2, align 8
  %6 = load ptr, ptr %2, align 8
  %7 = getelementptr inbounds %"class.gmx::AnalysisDataFrameLocalDataHandle", ptr %6, i32 0, i32 1
  %8 = load ptr, ptr %7, align 8
  %9 = call ptr @_ZNSt6vectorIlSaIlEE5beginEv(ptr noundef nonnull align 8 dereferenceable(24) %8) #14
  %10 = getelementptr inbounds %"class.__gnu_cxx::__normal_iterator.100", ptr %3, i32 0, i32 0
  store ptr %9, ptr %10, align 8
  %11 = getelementptr inbounds %"class.gmx::AnalysisDataFrameLocalDataHandle", ptr %6, i32 0, i32 1
  %12 = load ptr, ptr %11, align 8
  %13 = call ptr @_ZNSt6vectorIlSaIlEE3endEv(ptr noundef nonnull align 8 dereferenceable(24) %12) #14
  %14 = getelementptr inbounds %"class.__gnu_cxx::__normal_iterator.100", ptr %4, i32 0, i32 0
  store ptr %13, ptr %14, align 8
  store i64 0, ptr %5, align 8
  %15 = getelementptr inbounds %"class.__gnu_cxx::__normal_iterator.100", ptr %3, i32 0, i32 0
  %16 = load ptr, ptr %15, align 8
  %17 = getelementptr inbounds %"class.__gnu_cxx::__normal_iterator.100", ptr %4, i32 0, i32 0
  %18 = load ptr, ptr %17, align 8
  call void @_ZSt4fillIN9__gnu_cxx17__normal_iteratorIPlSt6vectorIlSaIlEEEElEvT_S7_RKT0_(ptr %16, ptr %18, ptr noundef nonnull align 8 dereferenceable(8) %5)
  ret void
}

; Function Attrs: mustprogress uwtable
define linkonce_odr { ptr, ptr } @_ZN3gmx26AnalysisDataFrameLocalDataIlE9frameDataEi(ptr noundef nonnull align 8 dereferenceable(48) %0, i32 noundef %1) #2 comdat align 2 {
  %3 = alloca %"class.gmx::AnalysisDataFrameLocalDataHandle", align 8
  %4 = alloca ptr, align 8
  %5 = alloca i32, align 4
  store ptr %0, ptr %4, align 8
  store i32 %1, ptr %5, align 4
  %6 = load ptr, ptr %4, align 8
  %7 = getelementptr inbounds %"class.gmx::AnalysisDataFrameLocalData", ptr %6, i32 0, i32 0
  %8 = getelementptr inbounds %"class.gmx::AnalysisDataFrameLocalData", ptr %6, i32 0, i32 1
  %9 = load i32, ptr %5, align 4
  %10 = sext i32 %9 to i64
  %11 = getelementptr inbounds %"class.gmx::AnalysisDataFrameLocalData", ptr %6, i32 0, i32 1
  %12 = call noundef i64 @_ZNKSt6vectorIS_IlSaIlEESaIS1_EE4sizeEv(ptr noundef nonnull align 8 dereferenceable(24) %11) #14
  %13 = urem i64 %10, %12
  %14 = call noundef nonnull align 8 dereferenceable(24) ptr @_ZNSt6vectorIS_IlSaIlEESaIS1_EEixEm(ptr noundef nonnull align 8 dereferenceable(24) %8, i64 noundef %13) #14
  call void @_ZN3gmx32AnalysisDataFrameLocalDataHandleIlEC2EPKSt6vectorIiSaIiEEPS2_IlSaIlEE(ptr noundef nonnull align 8 dereferenceable(16) %3, ptr noundef %7, ptr noundef %14)
  %15 = load { ptr, ptr }, ptr %3, align 8
  ret { ptr, ptr } %15
}

; Function Attrs: mustprogress nounwind uwtable
define linkonce_odr noundef i32 @_ZNK3gmx23AnalysisDataFrameHeader5indexEv(ptr noundef nonnull align 4 dereferenceable(12) %0) #0 comdat align 2 {
  %2 = alloca ptr, align 8
  store ptr %0, ptr %2, align 8
  %3 = load ptr, ptr %2, align 8
  %4 = getelementptr inbounds %"class.gmx::AnalysisDataFrameHeader", ptr %3, i32 0, i32 0
  %5 = load i32, ptr %4, align 4
  ret i32 %5
}

; Function Attrs: mustprogress nounwind uwtable
define linkonce_odr noundef ptr @_ZNKSt10unique_ptrIN3gmx33AnalysisDataSimpleHistogramModule4ImplESt14default_deleteIS2_EEptEv(ptr noundef nonnull align 8 dereferenceable(8) %0) #0 comdat align 2 {
  %2 = alloca ptr, align 8
  store ptr %0, ptr %2, align 8
  %3 = load ptr, ptr %2, align 8
  %4 = call noundef ptr @_ZNKSt10unique_ptrIN3gmx33AnalysisDataSimpleHistogramModule4ImplESt14default_deleteIS2_EE3getEv(ptr noundef nonnull align 8 dereferenceable(8) %3) #14
  ret ptr %4
}

; Function Attrs: mustprogress uwtable
define void @_ZN3gmx33AnalysisDataSimpleHistogramModule12frameStartedERKNS_23AnalysisDataFrameHeaderE(ptr noundef nonnull align 8 dereferenceable(32) %0, ptr noundef nonnull align 4 dereferenceable(12) %1) unnamed_addr #2 align 2 {
  %3 = alloca ptr, align 8
  %4 = alloca ptr, align 8
  %5 = alloca %"class.gmx::AnalysisDataFrameLocalDataHandle", align 8
  store ptr %0, ptr %3, align 8
  store ptr %1, ptr %4, align 8
  %6 = load ptr, ptr %3, align 8
  %7 = getelementptr inbounds %"class.gmx::AnalysisDataSimpleHistogramModule", ptr %6, i32 0, i32 2
  %8 = call noundef ptr @_ZNKSt10unique_ptrIN3gmx33AnalysisDataSimpleHistogramModule4ImplESt14default_deleteIS2_EEptEv(ptr noundef nonnull align 8 dereferenceable(8) %7) #14
  %9 = getelementptr inbounds %"class.gmx::AnalysisDataSimpleHistogramModule::Impl", ptr %8, i32 0, i32 1
  %10 = load ptr, ptr %4, align 8
  %11 = call noundef i32 @_ZNK3gmx23AnalysisDataFrameHeader5indexEv(ptr noundef nonnull align 4 dereferenceable(12) %10)
  %12 = call { ptr, ptr } @_ZN3gmx26AnalysisDataFrameLocalDataIlE9frameDataEi(ptr noundef nonnull align 8 dereferenceable(48) %9, i32 noundef %11)
  %13 = getelementptr inbounds { ptr, ptr }, ptr %5, i32 0, i32 0
  %14 = extractvalue { ptr, ptr } %12, 0
  store ptr %14, ptr %13, align 8
  %15 = getelementptr inbounds { ptr, ptr }, ptr %5, i32 0, i32 1
  %16 = extractvalue { ptr, ptr } %12, 1
  store ptr %16, ptr %15, align 8
  call void @_ZN3gmx32AnalysisDataFrameLocalDataHandleIlE5clearEv(ptr noundef nonnull align 8 dereferenceable(16) %5)
  ret void
}