; Function Attrs: mustprogress nofree norecurse nosync nounwind willreturn memory(readwrite, inaccessiblemem: none) uwtable
define void @_ZN3gmx33AnalysisDataSimpleHistogramModule12frameStartedERKNS_23AnalysisDataFrameHeaderE(ptr nocapture noundef nonnull readonly align 8 dereferenceable(32) %0, ptr nocapture noundef nonnull readonly align 4 dereferenceable(12) %1) unnamed_addr #6 align 2 {
  %3 = getelementptr inbounds i8, ptr %0, i64 24
  %4 = load ptr, ptr %3, align 8
  %5 = load i32, ptr %1, align 4
  %6 = getelementptr inbounds i8, ptr %4, i64 80
  %7 = sext i32 %5 to i64
  %8 = getelementptr inbounds i8, ptr %4, i64 88
  %9 = load ptr, ptr %8, align 8
  %10 = load ptr, ptr %6, align 8
  %11 = ptrtoint ptr %9 to i64
  %12 = ptrtoint ptr %10 to i64
  %13 = sub i64 %11, %12
  %14 = sdiv exact i64 %13, 24
  %15 = urem i64 %7, %14
  %16 = getelementptr inbounds %"class.std::vector.76", ptr %10, i64 %15
  %17 = load ptr, ptr %16, align 8
  %18 = getelementptr inbounds i8, ptr %16, i64 8
  %19 = load ptr, ptr %18, align 8
  %.not5.i.i.i.i.i = icmp eq ptr %17, %19
  br i1 %.not5.i.i.i.i.i, label %_ZN3gmx32AnalysisDataFrameLocalDataHandleIlE5clearEv.exit, label %.lr.ph.i.i.i.i.preheader.i

.lr.ph.i.i.i.i.preheader.i:                       ; preds = %2
  %20 = ptrtoint ptr %19 to i64
  %21 = ptrtoint ptr %17 to i64
  %reass.sub = sub i64 %20, %21
  %22 = and i64 %reass.sub, -8
  tail call void @llvm.memset.p0.i64(ptr align 8 %17, i8 0, i64 %22, i1 false)
  br label %_ZN3gmx32AnalysisDataFrameLocalDataHandleIlE5clearEv.exit

_ZN3gmx32AnalysisDataFrameLocalDataHandleIlE5clearEv.exit: ; preds = %2, %.lr.ph.i.i.i.i.preheader.i
  ret void
}